; Function Attrs: mustprogress nofree norecurse nosync nounwind willreturn memory(read, inaccessiblemem: none) uwtable
define hidden noundef i32 @_Z5none5RKSt10shared_ptrI10NoneTesterE(ptr nocapture noundef nonnull readonly align 8 dereferenceable(16) %0) #5 {
  %2 = load ptr, ptr %0, align 8
  %.not = icmp eq ptr %2, null
  br i1 %.not, label %5, label %3

3:                                                ; preds = %1
  %4 = load i32, ptr %2, align 4
  br label %5

5:                                                ; preds = %1, %3
  %6 = phi i32 [ %4, %3 ], [ -1, %1 ]
  ret i32 %6
}